target datalayout = "e-m:e-p270:32:32-p271:32:32-p272:64:64-i64:64-i128:128-f80:128-n8:16:32:64-S128"
target triple = "x86_64-pc-linux-gnu"

%struct.ident_t = type { i32, i32, i32, i32, ptr }
%"class.LightGBM::GradientDiscretizer" = type { ptr, i32, i32, i32, i32, i8, %"class.std::vector", %"class.std::vector", %"class.std::mersenne_twister_engine", %"class.std::uniform_int_distribution", %"class.std::vector.0", %"class.std::vector.0", double, double, double, double, double, double, i8, i32, %"class.std::vector.0", %"class.std::vector.0", %"class.std::vector.0", %"class.std::vector.0", %"class.std::vector", %"class.std::vector.5" }
%"class.std::mersenne_twister_engine" = type { [624 x i64], i64 }
%"class.std::uniform_int_distribution" = type { %"struct.std::uniform_int_distribution<>::param_type" }
%"struct.std::uniform_int_distribution<>::param_type" = type { i32, i32 }
%"class.std::vector.0" = type { %"struct.std::_Vector_base.1" }
%"struct.std::_Vector_base.1" = type { %"struct.std::_Vector_base<signed char, std::allocator<signed char>>::_Vector_impl" }
%"struct.std::_Vector_base<signed char, std::allocator<signed char>>::_Vector_impl" = type { %"struct.std::_Vector_base<signed char, std::allocator<signed char>>::_Vector_impl_data" }
%"struct.std::_Vector_base<signed char, std::allocator<signed char>>::_Vector_impl_data" = type { ptr, ptr, ptr }
%"class.std::vector" = type { %"struct.std::_Vector_base" }
%"struct.std::_Vector_base" = type { %"struct.std::_Vector_base<double, std::allocator<double>>::_Vector_impl" }
%"struct.std::_Vector_base<double, std::allocator<double>>::_Vector_impl" = type { %"struct.std::_Vector_base<double, std::allocator<double>>::_Vector_impl_data" }
%"struct.std::_Vector_base<double, std::allocator<double>>::_Vector_impl_data" = type { ptr, ptr, ptr }
%"class.std::vector.5" = type { %"struct.std::_Vector_base.6" }
%"struct.std::_Vector_base.6" = type { %"struct.std::_Vector_base<std::vector<int>, std::allocator<std::vector<int>>>::_Vector_impl" }
%"struct.std::_Vector_base<std::vector<int>, std::allocator<std::vector<int>>>::_Vector_impl" = type { %"struct.std::_Vector_base<std::vector<int>, std::allocator<std::vector<int>>>::_Vector_impl_data" }
%"struct.std::_Vector_base<std::vector<int>, std::allocator<std::vector<int>>>::_Vector_impl_data" = type { ptr, ptr, ptr }

@1 = private unnamed_addr constant %struct.ident_t { i32 0, i32 514, i32 0, i32 22, ptr @0 }, align 8

; Function Attrs: norecurse nounwind uwtable
define internal void @_ZN8LightGBM19GradientDiscretizer19DiscretizeGradientsEiPKfS2_.omp_outlined.4(ptr noalias noundef %0, ptr noalias noundef %1, ptr noundef nonnull align 4 dereferenceable(4) %2, ptr noundef nonnull align 8 dereferenceable(8) %3, ptr noundef nonnull align 8 dereferenceable(8) %4, ptr noundef %5) #7 {
  %7 = alloca ptr, align 8
  %8 = alloca ptr, align 8
  %9 = alloca ptr, align 8
  %10 = alloca ptr, align 8
  %11 = alloca ptr, align 8
  %12 = alloca ptr, align 8
  %13 = alloca i32, align 4
  %14 = alloca i32, align 4
  %15 = alloca i32, align 4
  %16 = alloca i32, align 4
  %17 = alloca i32, align 4
  %18 = alloca i32, align 4
  %19 = alloca i32, align 4
  %20 = alloca i32, align 4
  %21 = alloca i32, align 4
  %22 = alloca double, align 8
  store ptr %0, ptr %7, align 8
  store ptr %1, ptr %8, align 8
  store ptr %2, ptr %9, align 8
  store ptr %3, ptr %10, align 8
  store ptr %4, ptr %11, align 8
  store ptr %5, ptr %12, align 8
  %23 = load ptr, ptr %9, align 8
  %24 = load ptr, ptr %10, align 8
  %25 = load ptr, ptr %11, align 8
  %26 = load ptr, ptr %12, align 8
  %27 = load i32, ptr %23, align 4
  store i32 %27, ptr %14, align 4
  %28 = load i32, ptr %14, align 4
  %29 = sub nsw i32 %28, 0
  %30 = sdiv i32 %29, 1
  %31 = sub nsw i32 %30, 1
  store i32 %31, ptr %15, align 4
  store i32 0, ptr %16, align 4
  %32 = load i32, ptr %14, align 4
  %33 = icmp slt i32 0, %32
  br i1 %33, label %34, label %97

34:                                               ; preds = %6
  store i32 0, ptr %17, align 4
  %35 = load i32, ptr %15, align 4
  store i32 %35, ptr %18, align 4
  store i32 1, ptr %19, align 4
  store i32 0, ptr %20, align 4
  %36 = load ptr, ptr %7, align 8
  %37 = load i32, ptr %36, align 4
  call void @__kmpc_for_static_init_4(ptr @1, i32 %37, i32 34, ptr %20, ptr %17, ptr %18, ptr %19, i32 1, i32 1)
  %38 = load i32, ptr %18, align 4
  %39 = load i32, ptr %15, align 4
  %40 = icmp sgt i32 %38, %39
  br i1 %40, label %41, label %43

41:                                               ; preds = %34
  %42 = load i32, ptr %15, align 4
  br label %45

43:                                               ; preds = %34
  %44 = load i32, ptr %18, align 4
  br label %45

45:                                               ; preds = %43, %41
  %46 = phi i32 [ %42, %41 ], [ %44, %43 ]
  store i32 %46, ptr %18, align 4
  %47 = load i32, ptr %17, align 4
  store i32 %47, ptr %13, align 4
  br label %48

48:                                               ; preds = %90, %45
  %49 = load i32, ptr %13, align 4
  %50 = load i32, ptr %18, align 4
  %51 = icmp sle i32 %49, %50
  br i1 %51, label %52, label %93

52:                                               ; preds = %48
  %53 = load i32, ptr %13, align 4
  %54 = mul nsw i32 %53, 1
  %55 = add nsw i32 0, %54
  store i32 %55, ptr %21, align 4
  %56 = load ptr, ptr %24, align 8
  %57 = load i32, ptr %21, align 4
  %58 = sext i32 %57 to i64
  %59 = getelementptr inbounds float, ptr %56, i64 %58
  %60 = load float, ptr %59, align 4
  %61 = fpext float %60 to double
  store double %61, ptr %22, align 8
  %62 = load double, ptr %22, align 8
  %63 = fcmp oge double %62, 0.000000e+00
  br i1 %63, label %64, label %70

64:                                               ; preds = %52
  %65 = load double, ptr %22, align 8
  %66 = getelementptr inbounds %"class.LightGBM::GradientDiscretizer", ptr %26, i32 0, i32 16
  %67 = load double, ptr %66, align 8
  %68 = call double @llvm.fmuladd.f64(double %65, double %67, double 5.000000e-01)
  %69 = fptosi double %68 to i8
  br label %76

70:                                               ; preds = %52
  %71 = load double, ptr %22, align 8
  %72 = getelementptr inbounds %"class.LightGBM::GradientDiscretizer", ptr %26, i32 0, i32 16
  %73 = load double, ptr %72, align 8
  %74 = call double @llvm.fmuladd.f64(double %71, double %73, double -5.000000e-01)
  %75 = fptosi double %74 to i8
  br label %76

76:                                               ; preds = %70, %64
  %77 = phi i8 [ %69, %64 ], [ %75, %70 ]
  %78 = load ptr, ptr %25, align 8
  %79 = load i32, ptr %21, align 4
  %80 = mul nsw i32 2, %79
  %81 = add nsw i32 %80, 1
  %82 = sext i32 %81 to i64
  %83 = getelementptr inbounds i8, ptr %78, i64 %82
  store i8 %77, ptr %83, align 1
  %84 = load ptr, ptr %25, align 8
  %85 = load i32, ptr %21, align 4
  %86 = mul nsw i32 2, %85
  %87 = sext i32 %86 to i64
  %88 = getelementptr inbounds i8, ptr %84, i64 %87
  store i8 1, ptr %88, align 1
  br label %89

89:                                               ; preds = %76
  br label %90

90:                                               ; preds = %89
  %91 = load i32, ptr %13, align 4
  %92 = add nsw i32 %91, 1
  store i32 %92, ptr %13, align 4
  br label %48

93:                                               ; preds = %48
  br label %94

94:                                               ; preds = %93
  %95 = load ptr, ptr %7, align 8
  %96 = load i32, ptr %95, align 4
  call void @__kmpc_for_static_fini(ptr @1, i32 %96)
  br label %97

97:                                               ; preds = %94, %6
  ret void
}