; Function Attrs: norecurse nounwind uwtable
define internal void @_ZN8LightGBM19GradientDiscretizer19DiscretizeGradientsEiPKfS2_.omp_outlined.4(ptr noalias nocapture noundef readonly %0, ptr noalias nocapture readnone %1, ptr nocapture noundef nonnull readonly align 4 dereferenceable(4) %2, ptr nocapture noundef nonnull readonly align 8 dereferenceable(8) %3, ptr nocapture noundef nonnull readonly align 8 dereferenceable(8) %4, ptr nocapture noundef readonly %5) #6 {
  %7 = alloca i32, align 4
  %8 = alloca i32, align 4
  %9 = alloca i32, align 4
  %10 = alloca i32, align 4
  %11 = load i32, ptr %2, align 4
  %12 = icmp sgt i32 %11, 0
  br i1 %12, label %13, label %39

13:                                               ; preds = %6
  %14 = add nsw i32 %11, -1
  store i32 0, ptr %7, align 4
  store i32 %14, ptr %8, align 4
  store i32 1, ptr %9, align 4
  store i32 0, ptr %10, align 4
  %15 = load i32, ptr %0, align 4
  call void @__kmpc_for_static_init_4(ptr nonnull @1, i32 %15, i32 34, ptr nonnull %10, ptr nonnull %7, ptr nonnull %8, ptr nonnull %9, i32 1, i32 1)
  %16 = load i32, ptr %8, align 4
  %17 = call i32 @llvm.smin.i32(i32 %16, i32 %14)
  store i32 %17, ptr %8, align 4
  %18 = load i32, ptr %7, align 4
  %.not20 = icmp sgt i32 %18, %17
  br i1 %.not20, label %._crit_edge, label %.lr.ph

.lr.ph:                                           ; preds = %13
  %19 = getelementptr inbounds i8, ptr %5, i64 5168
  %20 = sext i32 %18 to i64
  br label %21

21:                                               ; preds = %.lr.ph, %21
  %indvars.iv = phi i64 [ %20, %.lr.ph ], [ %indvars.iv.next, %21 ]
  %22 = load ptr, ptr %3, align 8
  %23 = getelementptr inbounds float, ptr %22, i64 %indvars.iv
  %24 = load float, ptr %23, align 4
  %25 = fpext float %24 to double
  %26 = fcmp ult float %24, 0.000000e+00
  %27 = load double, ptr %19, align 8
  %28 = call double @llvm.fmuladd.f64(double %25, double %27, double 5.000000e-01)
  %29 = call double @llvm.fmuladd.f64(double %25, double %27, double -5.000000e-01)
  %.in = select i1 %26, double %29, double %28
  %30 = fptosi double %.in to i8
  %31 = load ptr, ptr %4, align 8
  %32 = shl nsw i64 %indvars.iv, 1
  %33 = or disjoint i64 %32, 1
  %34 = getelementptr inbounds i8, ptr %31, i64 %33
  store i8 %30, ptr %34, align 1
  %35 = load ptr, ptr %4, align 8
  %36 = getelementptr inbounds i8, ptr %35, i64 %32
  store i8 1, ptr %36, align 1
  %indvars.iv.next = add nsw i64 %indvars.iv, 1
  %37 = load i32, ptr %8, align 4
  %38 = sext i32 %37 to i64
  %.not.not = icmp slt i64 %indvars.iv, %38
  br i1 %.not.not, label %21, label %._crit_edge

._crit_edge:                                      ; preds = %21, %13
  call void @__kmpc_for_static_fini(ptr nonnull @1, i32 %15)
  br label %39

39:                                               ; preds = %._crit_edge, %6
  ret void
}